; Function Attrs: null_pointer_is_valid sspstrong uwtable
define internal fastcc void @dissect_amqp_0_9_method_queue_unbind(ptr noundef %0, ptr noundef %1, ptr noundef %2) unnamed_addr #0 {
  %4 = alloca ptr, align 8
  call void @llvm.lifetime.start.p0(i64 8, ptr nonnull %4) #14
  %5 = load i32, ptr @hf_amqp_method_queue_unbind_ticket, align 4
  %6 = tail call ptr @proto_tree_add_item(ptr noundef %2, i32 noundef %5, ptr noundef %0, i32 noundef 11, i32 noundef 2, i32 noundef 0)
  %7 = load i32, ptr @hf_amqp_method_queue_unbind_queue, align 4
  %8 = tail call zeroext i8 @tvb_get_uint8(ptr noundef %0, i32 noundef 13)
  %9 = zext i8 %8 to i32
  %10 = getelementptr inbounds nuw i8, ptr %1, i64 408
  %11 = load ptr, ptr %10, align 8
  %12 = call ptr @proto_tree_add_item_ret_string(ptr noundef %2, i32 noundef %7, ptr noundef %0, i32 noundef 14, i32 noundef %9, i32 noundef 0, ptr noundef %11, ptr noundef nonnull %4)
  %13 = getelementptr inbounds nuw i8, ptr %1, i64 8
  %14 = load ptr, ptr %13, align 8
  %15 = load ptr, ptr %4, align 8
  call void (ptr, i32, ptr, ...) @col_append_fstr(ptr noundef %14, i32 noundef 25, ptr noundef nonnull @.str.1479, ptr noundef %15)
  %16 = call zeroext i8 @tvb_get_uint8(ptr noundef %0, i32 noundef 13)
  %17 = zext i8 %16 to i32
  %18 = add nuw nsw i32 %17, 14
  %19 = load i32, ptr @hf_amqp_method_queue_unbind_exchange, align 4
  %20 = add nuw nsw i32 %17, 15
  %21 = call zeroext i8 @tvb_get_uint8(ptr noundef %0, i32 noundef %18)
  %22 = zext i8 %21 to i32
  %23 = load ptr, ptr %10, align 8
  %24 = call ptr @proto_tree_add_item_ret_string(ptr noundef %2, i32 noundef %19, ptr noundef %0, i32 noundef %20, i32 noundef %22, i32 noundef 0, ptr noundef %23, ptr noundef nonnull %4)
  %25 = load ptr, ptr %13, align 8
  %26 = load ptr, ptr %4, align 8
  call void (ptr, i32, ptr, ...) @col_append_fstr(ptr noundef %25, i32 noundef 25, ptr noundef nonnull @.str.1475, ptr noundef %26)
  %27 = call zeroext i8 @tvb_get_uint8(ptr noundef %0, i32 noundef %18)
  %28 = zext i8 %27 to i32
  %29 = add nuw nsw i32 %20, %28
  %30 = load i32, ptr @hf_amqp_method_queue_unbind_routing_key, align 4
  %31 = add nuw nsw i32 %29, 1
  %32 = call zeroext i8 @tvb_get_uint8(ptr noundef %0, i32 noundef %29)
  %33 = zext i8 %32 to i32
  %34 = load ptr, ptr %10, align 8
  %35 = call ptr @proto_tree_add_item_ret_string(ptr noundef %2, i32 noundef %30, ptr noundef %0, i32 noundef %31, i32 noundef %33, i32 noundef 0, ptr noundef %34, ptr noundef nonnull %4)
  %36 = load ptr, ptr %13, align 8
  %37 = load ptr, ptr %4, align 8
  call void (ptr, i32, ptr, ...) @col_append_fstr(ptr noundef %36, i32 noundef 25, ptr noundef nonnull @.str.1480, ptr noundef %37)
  %38 = call zeroext i8 @tvb_get_uint8(ptr noundef %0, i32 noundef %29)
  %39 = zext i8 %38 to i32
  %40 = add nuw nsw i32 %31, %39
  %41 = load i32, ptr @hf_amqp_method_queue_unbind_arguments, align 4
  %42 = add nuw nsw i32 %40, 4
  %43 = call i32 @tvb_get_ntohl(ptr noundef %0, i32 noundef %40)
  %44 = call ptr @proto_tree_add_item(ptr noundef %2, i32 noundef %41, ptr noundef %0, i32 noundef %42, i32 noundef %43, i32 noundef 0)
  %45 = call i32 @tvb_get_ntohl(ptr noundef %0, i32 noundef %40)
  call fastcc void @dissect_amqp_0_9_field_table(ptr noundef %0, ptr noundef %1, i32 noundef %42, i32 noundef %45, ptr noundef %44)
  %46 = call i32 @tvb_get_ntohl(ptr noundef %0, i32 noundef %40)
  call void @llvm.lifetime.end.p0(i64 8, ptr nonnull %4) #14
  ret void
}